target datalayout = "e-m:e-p270:32:32-p271:32:32-p272:64:64-i64:64-i128:128-f80:128-n8:16:32:64-S128"
target triple = "x86_64-pc-linux-gnu"

@hf_security_6_3_granted_duration = internal global i32 0, align 4
@hf_security_6_3_session_security_scope = internal global i32 0, align 4
@hf_security_6_3_initiator_validation = internal global i32 0, align 4
@hf_security_6_3_responder_validation = internal global i32 0, align 4
@ett_security_6_3_session_security_scope = internal global i32 0, align 4
@ett_security_6_3_initiator_validation = internal global i32 0, align 4
@ett_security_6_3_responder_validation = internal global i32 0, align 4

; Function Attrs: null_pointer_is_valid sspstrong uwtable
define internal i32 @dissect_2008_16_security_6_3(ptr noundef %0, ptr noundef %1, ptr noundef %2, ptr noundef %3) #0 {
  %5 = alloca ptr, align 8
  %6 = alloca ptr, align 8
  %7 = alloca ptr, align 8
  %8 = alloca ptr, align 8
  %9 = alloca i32, align 4
  %10 = alloca i32, align 4
  %11 = alloca ptr, align 8
  %12 = alloca ptr, align 8
  %13 = alloca ptr, align 8
  %14 = alloca i32, align 4
  %15 = alloca ptr, align 8
  %16 = alloca ptr, align 8
  %17 = alloca ptr, align 8
  %18 = alloca i32, align 4
  %19 = alloca ptr, align 8
  %20 = alloca ptr, align 8
  %21 = alloca ptr, align 8
  store ptr %0, ptr %5, align 8
  store ptr %1, ptr %6, align 8
  store ptr %2, ptr %7, align 8
  store ptr %3, ptr %8, align 8
  call void @llvm.lifetime.start.p0(i64 4, ptr %9) #19
  store i32 0, ptr %9, align 4
  %22 = load ptr, ptr %7, align 8
  %23 = load i32, ptr @hf_security_6_3_granted_duration, align 4
  %24 = load ptr, ptr %5, align 8
  %25 = load i32, ptr %9, align 4
  %26 = call ptr @proto_tree_add_item(ptr noundef %22, i32 noundef %23, ptr noundef %24, i32 noundef %25, i32 noundef 1, i32 noundef 0)
  %27 = load i32, ptr %9, align 4
  %28 = add i32 %27, 1
  store i32 %28, ptr %9, align 4
  call void @llvm.lifetime.start.p0(i64 4, ptr %10) #19
  call void @llvm.lifetime.start.p0(i64 8, ptr %11) #19
  %29 = load ptr, ptr %5, align 8
  %30 = load i32, ptr %9, align 4
  %31 = call ptr @tvb_new_subset_remaining(ptr noundef %29, i32 noundef %30)
  store ptr %31, ptr %11, align 8
  call void @llvm.lifetime.start.p0(i64 8, ptr %12) #19
  call void @llvm.lifetime.start.p0(i64 8, ptr %13) #19
  %32 = load ptr, ptr %7, align 8
  %33 = load i32, ptr @hf_security_6_3_session_security_scope, align 4
  %34 = load ptr, ptr %5, align 8
  %35 = load i32, ptr %9, align 4
  %36 = call ptr @proto_tree_add_item(ptr noundef %32, i32 noundef %33, ptr noundef %34, i32 noundef %35, i32 noundef 0, i32 noundef 0)
  store ptr %36, ptr %12, align 8
  %37 = load ptr, ptr %12, align 8
  %38 = load i32, ptr @ett_security_6_3_session_security_scope, align 4
  %39 = call ptr @proto_item_add_subtree(ptr noundef %37, i32 noundef %38)
  store ptr %39, ptr %13, align 8
  %40 = load ptr, ptr %11, align 8
  %41 = load ptr, ptr %6, align 8
  %42 = load ptr, ptr %13, align 8
  %43 = call i32 @dissect_2008_16_security_10(ptr noundef %40, ptr noundef %41, ptr noundef %42, ptr noundef null)
  store i32 %43, ptr %10, align 4
  %44 = load ptr, ptr %12, align 8
  %45 = load i32, ptr %10, align 4
  call void @proto_item_set_len(ptr noundef %44, i32 noundef %45)
  %46 = load i32, ptr %10, align 4
  %47 = load i32, ptr %9, align 4
  %48 = add i32 %47, %46
  store i32 %48, ptr %9, align 4
  call void @llvm.lifetime.end.p0(i64 8, ptr %13) #19
  call void @llvm.lifetime.end.p0(i64 8, ptr %12) #19
  call void @llvm.lifetime.end.p0(i64 8, ptr %11) #19
  call void @llvm.lifetime.end.p0(i64 4, ptr %10) #19
  call void @llvm.lifetime.start.p0(i64 4, ptr %14) #19
  call void @llvm.lifetime.start.p0(i64 8, ptr %15) #19
  %49 = load ptr, ptr %5, align 8
  %50 = load i32, ptr %9, align 4
  %51 = call ptr @tvb_new_subset_remaining(ptr noundef %49, i32 noundef %50)
  store ptr %51, ptr %15, align 8
  call void @llvm.lifetime.start.p0(i64 8, ptr %16) #19
  call void @llvm.lifetime.start.p0(i64 8, ptr %17) #19
  %52 = load ptr, ptr %7, align 8
  %53 = load i32, ptr @hf_security_6_3_initiator_validation, align 4
  %54 = load ptr, ptr %5, align 8
  %55 = load i32, ptr %9, align 4
  %56 = call ptr @proto_tree_add_item(ptr noundef %52, i32 noundef %53, ptr noundef %54, i32 noundef %55, i32 noundef 0, i32 noundef 0)
  store ptr %56, ptr %16, align 8
  %57 = load ptr, ptr %16, align 8
  %58 = load i32, ptr @ett_security_6_3_initiator_validation, align 4
  %59 = call ptr @proto_item_add_subtree(ptr noundef %57, i32 noundef %58)
  store ptr %59, ptr %17, align 8
  %60 = load ptr, ptr %15, align 8
  %61 = load ptr, ptr %6, align 8
  %62 = load ptr, ptr %17, align 8
  %63 = call i32 @dissect_2008_16_security_11(ptr noundef %60, ptr noundef %61, ptr noundef %62, ptr noundef null)
  store i32 %63, ptr %14, align 4
  %64 = load ptr, ptr %16, align 8
  %65 = load i32, ptr %14, align 4
  call void @proto_item_set_len(ptr noundef %64, i32 noundef %65)
  %66 = load i32, ptr %14, align 4
  %67 = load i32, ptr %9, align 4
  %68 = add i32 %67, %66
  store i32 %68, ptr %9, align 4
  call void @llvm.lifetime.end.p0(i64 8, ptr %17) #19
  call void @llvm.lifetime.end.p0(i64 8, ptr %16) #19
  call void @llvm.lifetime.end.p0(i64 8, ptr %15) #19
  call void @llvm.lifetime.end.p0(i64 4, ptr %14) #19
  call void @llvm.lifetime.start.p0(i64 4, ptr %18) #19
  call void @llvm.lifetime.start.p0(i64 8, ptr %19) #19
  %69 = load ptr, ptr %5, align 8
  %70 = load i32, ptr %9, align 4
  %71 = call ptr @tvb_new_subset_remaining(ptr noundef %69, i32 noundef %70)
  store ptr %71, ptr %19, align 8
  call void @llvm.lifetime.start.p0(i64 8, ptr %20) #19
  call void @llvm.lifetime.start.p0(i64 8, ptr %21) #19
  %72 = load ptr, ptr %7, align 8
  %73 = load i32, ptr @hf_security_6_3_responder_validation, align 4
  %74 = load ptr, ptr %5, align 8
  %75 = load i32, ptr %9, align 4
  %76 = call ptr @proto_tree_add_item(ptr noundef %72, i32 noundef %73, ptr noundef %74, i32 noundef %75, i32 noundef 0, i32 noundef 0)
  store ptr %76, ptr %20, align 8
  %77 = load ptr, ptr %20, align 8
  %78 = load i32, ptr @ett_security_6_3_responder_validation, align 4
  %79 = call ptr @proto_item_add_subtree(ptr noundef %77, i32 noundef %78)
  store ptr %79, ptr %21, align 8
  %80 = load ptr, ptr %19, align 8
  %81 = load ptr, ptr %6, align 8
  %82 = load ptr, ptr %21, align 8
  %83 = call i32 @dissect_2008_16_security_11(ptr noundef %80, ptr noundef %81, ptr noundef %82, ptr noundef null)
  store i32 %83, ptr %18, align 4
  %84 = load ptr, ptr %20, align 8
  %85 = load i32, ptr %18, align 4
  call void @proto_item_set_len(ptr noundef %84, i32 noundef %85)
  %86 = load i32, ptr %18, align 4
  %87 = load i32, ptr %9, align 4
  %88 = add i32 %87, %86
  store i32 %88, ptr %9, align 4
  call void @llvm.lifetime.end.p0(i64 8, ptr %21) #19
  call void @llvm.lifetime.end.p0(i64 8, ptr %20) #19
  call void @llvm.lifetime.end.p0(i64 8, ptr %19) #19
  call void @llvm.lifetime.end.p0(i64 4, ptr %18) #19
  %89 = load i32, ptr %9, align 4
  call void @llvm.lifetime.end.p0(i64 4, ptr %9) #19
  ret i32 %89
}