; Function Attrs: null_pointer_is_valid sspstrong uwtable
define internal noundef i32 @dissect_2008_16_security_6_3(ptr noundef %0, ptr noundef %1, ptr noundef %2, ptr readnone captures(none) %3) #0 {
  %5 = load i32, ptr @hf_security_6_3_granted_duration, align 4
  %6 = tail call ptr @proto_tree_add_item(ptr noundef %2, i32 noundef %5, ptr noundef %0, i32 noundef 0, i32 noundef 1, i32 noundef 0)
  %7 = tail call ptr @tvb_new_subset_remaining(ptr noundef %0, i32 noundef 1)
  %8 = load i32, ptr @hf_security_6_3_session_security_scope, align 4
  %9 = tail call ptr @proto_tree_add_item(ptr noundef %2, i32 noundef %8, ptr noundef %0, i32 noundef 1, i32 noundef 0, i32 noundef 0)
  %10 = load i32, ptr @ett_security_6_3_session_security_scope, align 4
  %11 = tail call ptr @proto_item_add_subtree(ptr noundef %9, i32 noundef %10)
  %12 = tail call i32 @dissect_2008_16_security_10(ptr noundef %7, ptr noundef %1, ptr noundef %11, ptr poison)
  tail call void @proto_item_set_len(ptr noundef %9, i32 noundef %12)
  %13 = add i32 %12, 1
  %14 = tail call ptr @tvb_new_subset_remaining(ptr noundef %0, i32 noundef %13)
  %15 = load i32, ptr @hf_security_6_3_initiator_validation, align 4
  %16 = tail call ptr @proto_tree_add_item(ptr noundef %2, i32 noundef %15, ptr noundef %0, i32 noundef %13, i32 noundef 0, i32 noundef 0)
  %17 = load i32, ptr @ett_security_6_3_initiator_validation, align 4
  %18 = tail call ptr @proto_item_add_subtree(ptr noundef %16, i32 noundef %17)
  %19 = tail call i32 @dissect_2008_16_security_11(ptr noundef %14, ptr noundef %1, ptr noundef %18, ptr poison)
  tail call void @proto_item_set_len(ptr noundef %16, i32 noundef %19)
  %20 = add i32 %19, %13
  %21 = tail call ptr @tvb_new_subset_remaining(ptr noundef %0, i32 noundef %20)
  %22 = load i32, ptr @hf_security_6_3_responder_validation, align 4
  %23 = tail call ptr @proto_tree_add_item(ptr noundef %2, i32 noundef %22, ptr noundef %0, i32 noundef %20, i32 noundef 0, i32 noundef 0)
  %24 = load i32, ptr @ett_security_6_3_responder_validation, align 4
  %25 = tail call ptr @proto_item_add_subtree(ptr noundef %23, i32 noundef %24)
  %26 = tail call i32 @dissect_2008_16_security_11(ptr noundef %21, ptr noundef %1, ptr noundef %25, ptr poison)
  tail call void @proto_item_set_len(ptr noundef %23, i32 noundef %26)
  %27 = add i32 %26, %20
  ret i32 %27
}